; Function Attrs: null_pointer_is_valid sspstrong uwtable
define noundef zeroext i1 @wscbor_require_array_size(ptr noundef readonly captures(none) %0, i64 noundef %1, i64 noundef %2) local_unnamed_addr #0 {
  %4 = getelementptr inbounds nuw i8, ptr %0, i64 40
  %5 = load i32, ptr %4, align 8
  %6 = icmp eq i32 %5, 4
  br i1 %6, label %12, label %wscbor_require_array.exit

wscbor_require_array.exit:                        ; preds = %3
  %7 = getelementptr inbounds nuw i8, ptr %0, i64 24
  %8 = load ptr, ptr %7, align 8
  %9 = load ptr, ptr %0, align 8
  %10 = load ptr, ptr %9, align 8
  %11 = tail call ptr (ptr, ptr, ptr, ...) @wscbor_error_new(ptr noundef %10, ptr noundef nonnull @ei_cbor_wrong_type, ptr noundef nonnull @.str.10, i32 noundef %5, i32 noundef 4)
  tail call void @wmem_list_append(ptr noundef %8, ptr noundef %11)
  br label %23

12:                                               ; preds = %3
  %13 = getelementptr inbounds nuw i8, ptr %0, i64 48
  %14 = load i64, ptr %13, align 8
  %15 = icmp ult i64 %14, %1
  %16 = icmp ugt i64 %14, %2
  %or.cond = or i1 %15, %16
  br i1 %or.cond, label %17, label %23

17:                                               ; preds = %12
  %18 = getelementptr inbounds nuw i8, ptr %0, i64 24
  %19 = load ptr, ptr %18, align 8
  %20 = load ptr, ptr %0, align 8
  %21 = load ptr, ptr %20, align 8
  %22 = tail call ptr (ptr, ptr, ptr, ...) @wscbor_error_new(ptr noundef %21, ptr noundef nonnull @ei_cbor_array_wrong_size, ptr noundef nonnull @.str.11, i64 noundef %14, i64 noundef %1, i64 noundef %2)
  tail call void @wmem_list_append(ptr noundef %19, ptr noundef %22)
  br label %23

23:                                               ; preds = %wscbor_require_array.exit, %12, %17
  %.0 = phi i1 [ false, %17 ], [ false, %wscbor_require_array.exit ], [ true, %12 ]
  ret i1 %.0
}